target datalayout = "e-m:e-p270:32:32-p271:32:32-p272:64:64-i64:64-i128:128-f80:128-n8:16:32:64-S128"
target triple = "x86_64-pc-linux-gnu"

%struct.EC_builtin_curve = type { i32, ptr }

@.str = private unnamed_addr constant [25 x i8] c"../openssl/test/ectest.c\00", align 1
@curves = internal global ptr null, align 8
@.str.430 = private unnamed_addr constant [40 x i8] c"group = EC_GROUP_new_by_curve_name(nid)\00", align 1
@.str.434 = private unnamed_addr constant [17 x i8] c"Curve %s failed\0A\00", align 1

; Function Attrs: nounwind uwtable
define internal i32 @internal_curve_test_method(i32 noundef %0) #0 {
  %2 = alloca i32, align 4
  %3 = alloca i32, align 4
  %4 = alloca i32, align 4
  %5 = alloca i32, align 4
  %6 = alloca ptr, align 8
  %7 = alloca i32, align 4
  store i32 %0, ptr %3, align 4, !tbaa !16
  call void @llvm.lifetime.start.p0(i64 4, ptr %4) #7
  call void @llvm.lifetime.start.p0(i64 4, ptr %5) #7
  %8 = load ptr, ptr @curves, align 8, !tbaa !8
  %9 = load i32, ptr %3, align 4, !tbaa !16
  %10 = sext i32 %9 to i64
  %11 = getelementptr inbounds %struct.EC_builtin_curve, ptr %8, i64 %10
  %12 = getelementptr inbounds nuw %struct.EC_builtin_curve, ptr %11, i32 0, i32 0
  %13 = load i32, ptr %12, align 8, !tbaa !28
  store i32 %13, ptr %5, align 4, !tbaa !16
  call void @llvm.lifetime.start.p0(i64 8, ptr %6) #7
  %14 = load i32, ptr %5, align 4, !tbaa !16
  %15 = call ptr @EC_GROUP_new_by_curve_name(i32 noundef %14)
  store ptr %15, ptr %6, align 8, !tbaa !10
  %16 = call i32 @test_ptr(ptr noundef @.str, i32 noundef 1161, ptr noundef @.str.430, ptr noundef %15)
  %17 = icmp ne i32 %16, 0
  br i1 %17, label %21, label %18

18:                                               ; preds = %1
  %19 = load i32, ptr %5, align 4, !tbaa !16
  %20 = call ptr @OBJ_nid2sn(i32 noundef %19)
  call void (ptr, i32, ptr, ...) @test_info(ptr noundef @.str, i32 noundef 1162, ptr noundef @.str.434, ptr noundef %20)
  store i32 0, ptr %2, align 4
  store i32 1, ptr %7, align 4
  br label %26

21:                                               ; preds = %1
  %22 = load ptr, ptr %6, align 8, !tbaa !10
  %23 = call i32 @group_order_tests(ptr noundef %22)
  store i32 %23, ptr %4, align 4, !tbaa !16
  %24 = load ptr, ptr %6, align 8, !tbaa !10
  call void @EC_GROUP_free(ptr noundef %24)
  %25 = load i32, ptr %4, align 4, !tbaa !16
  store i32 %25, ptr %2, align 4
  store i32 1, ptr %7, align 4
  br label %26

26:                                               ; preds = %21, %18
  call void @llvm.lifetime.end.p0(i64 8, ptr %6) #7
  call void @llvm.lifetime.end.p0(i64 4, ptr %5) #7
  call void @llvm.lifetime.end.p0(i64 4, ptr %4) #7
  %27 = load i32, ptr %2, align 4
  ret i32 %27
}