; Function Attrs: nounwind uwtable
define internal range(i32 0, 2) i32 @internal_curve_test_method(i32 noundef %0) #0 {
  %2 = load ptr, ptr @curves, align 8, !tbaa !8
  %3 = sext i32 %0 to i64
  %4 = getelementptr inbounds %struct.EC_builtin_curve, ptr %2, i64 %3
  %5 = load i32, ptr %4, align 8, !tbaa !16
  %6 = tail call ptr @EC_GROUP_new_by_curve_name(i32 noundef %5) #7
  %7 = tail call i32 @test_ptr(ptr noundef nonnull @.str, i32 noundef 1161, ptr noundef nonnull @.str.430, ptr noundef %6) #7
  %.not = icmp eq i32 %7, 0
  br i1 %.not, label %8, label %10

8:                                                ; preds = %1
  %9 = tail call ptr @OBJ_nid2sn(i32 noundef %5) #7
  tail call void (ptr, i32, ptr, ...) @test_info(ptr noundef nonnull @.str, i32 noundef 1162, ptr noundef nonnull @.str.434, ptr noundef %9) #7
  br label %12

10:                                               ; preds = %1
  %11 = tail call fastcc i32 @group_order_tests(ptr noundef %6)
  tail call void @EC_GROUP_free(ptr noundef %6) #7
  br label %12

12:                                               ; preds = %10, %8
  %.0 = phi i32 [ %11, %10 ], [ 0, %8 ]
  ret i32 %.0
}